target datalayout = "e-m:e-p270:32:32-p271:32:32-p272:64:64-i64:64-i128:128-f80:128-n8:16:32:64-S128"
target triple = "x86_64-pc-linux-gnu"

%struct.read_file_data = type { i32, i64, ptr, i32, i8, i32, %union.anon }
%union.anon = type { [1 x i32] }
%struct.stat = type { i64, i64, i64, i32, i32, i32, i32, i64, i64, i64, i64, %struct.timespec, %struct.timespec, %struct.timespec, [3 x i64] }
%struct.timespec = type { i64, i64 }

@.str = private unnamed_addr constant [1 x i8] zeroinitializer, align 1
@.str.1 = private unnamed_addr constant [10 x i8] c"No memory\00", align 1
@.str.4 = private unnamed_addr constant [20 x i8] c"Failed to open '%s'\00", align 1
@.str.5 = private unnamed_addr constant [51 x i8] c"Unexpedted operation in archive_read_open_filename\00", align 1
@.str.6 = private unnamed_addr constant [16 x i8] c"Can't stat '%s'\00", align 1

; Function Attrs: nounwind uwtable
define internal i32 @file_open(ptr noundef %0, ptr noundef %1) #0 {
  %3 = alloca i32, align 4
  %4 = alloca ptr, align 8
  %5 = alloca ptr, align 8
  %6 = alloca %struct.stat, align 8
  %7 = alloca ptr, align 8
  %8 = alloca ptr, align 8
  %9 = alloca ptr, align 8
  %10 = alloca i32, align 4
  %11 = alloca i32, align 4
  %12 = alloca i64, align 8
  store ptr %0, ptr %4, align 8
  store ptr %1, ptr %5, align 8
  %13 = load ptr, ptr %5, align 8
  store ptr %13, ptr %7, align 8
  store ptr null, ptr %9, align 8
  store i32 -1, ptr %10, align 4
  store i32 0, ptr %11, align 4
  %14 = load ptr, ptr %4, align 8
  call void @archive_clear_error(ptr noundef %14)
  %15 = load ptr, ptr %7, align 8
  %16 = getelementptr inbounds %struct.read_file_data, ptr %15, i32 0, i32 5
  %17 = load i32, ptr %16, align 8
  %18 = icmp eq i32 %17, 0
  br i1 %18, label %19, label %20

19:                                               ; preds = %2
  store i32 0, ptr %10, align 4
  store ptr @.str, ptr %9, align 8
  br label %43

20:                                               ; preds = %2
  %21 = load ptr, ptr %7, align 8
  %22 = getelementptr inbounds %struct.read_file_data, ptr %21, i32 0, i32 5
  %23 = load i32, ptr %22, align 8
  %24 = icmp eq i32 %23, 1
  br i1 %24, label %25, label %40

25:                                               ; preds = %20
  %26 = load ptr, ptr %7, align 8
  %27 = getelementptr inbounds %struct.read_file_data, ptr %26, i32 0, i32 6
  %28 = getelementptr inbounds [1 x i8], ptr %27, i64 0, i64 0
  store ptr %28, ptr %9, align 8
  %29 = load ptr, ptr %9, align 8
  %30 = call i32 (ptr, i32, ...) @open(ptr noundef %29, i32 noundef 524288)
  store i32 %30, ptr %10, align 4
  %31 = load i32, ptr %10, align 4
  call void @__archive_ensure_cloexec_flag(i32 noundef %31)
  %32 = load i32, ptr %10, align 4
  %33 = icmp slt i32 %32, 0
  br i1 %33, label %34, label %39

34:                                               ; preds = %25
  %35 = load ptr, ptr %4, align 8
  %36 = call ptr @__errno_location() #10
  %37 = load i32, ptr %36, align 4
  %38 = load ptr, ptr %9, align 8
  call void (ptr, i32, ptr, ...) @archive_set_error(ptr noundef %35, i32 noundef %37, ptr noundef @.str.4, ptr noundef %38)
  store i32 -30, ptr %3, align 4
  br label %144

39:                                               ; preds = %25
  br label %42

40:                                               ; preds = %20
  %41 = load ptr, ptr %4, align 8
  call void (ptr, i32, ptr, ...) @archive_set_error(ptr noundef %41, i32 noundef -1, ptr noundef @.str.5)
  br label %134

42:                                               ; preds = %39
  br label %43

43:                                               ; preds = %42, %19
  %44 = load i32, ptr %10, align 4
  %45 = call i32 @fstat(i32 noundef %44, ptr noundef %6) #9
  %46 = icmp ne i32 %45, 0
  br i1 %46, label %47, label %52

47:                                               ; preds = %43
  %48 = load ptr, ptr %4, align 8
  %49 = call ptr @__errno_location() #10
  %50 = load i32, ptr %49, align 4
  %51 = load ptr, ptr %9, align 8
  call void (ptr, i32, ptr, ...) @archive_set_error(ptr noundef %48, i32 noundef %50, ptr noundef @.str.6, ptr noundef %51)
  br label %134

52:                                               ; preds = %43
  %53 = getelementptr inbounds %struct.stat, ptr %6, i32 0, i32 3
  %54 = load i32, ptr %53, align 8
  %55 = and i32 %54, 61440
  %56 = icmp eq i32 %55, 32768
  br i1 %56, label %57, label %63

57:                                               ; preds = %52
  %58 = load ptr, ptr %4, align 8
  %59 = getelementptr inbounds %struct.stat, ptr %6, i32 0, i32 0
  %60 = load i64, ptr %59, align 8
  %61 = getelementptr inbounds %struct.stat, ptr %6, i32 0, i32 1
  %62 = load i64, ptr %61, align 8
  call void @archive_read_extract_set_skip_file(ptr noundef %58, i64 noundef %60, i64 noundef %62)
  store i32 1, ptr %11, align 4
  br label %86

63:                                               ; preds = %52
  %64 = getelementptr inbounds %struct.stat, ptr %6, i32 0, i32 3
  %65 = load i32, ptr %64, align 8
  %66 = and i32 %65, 61440
  %67 = icmp eq i32 %66, 24576
  br i1 %67, label %68, label %85

68:                                               ; preds = %63
  %69 = load i32, ptr %10, align 4
  %70 = call i64 @lseek(i32 noundef %69, i64 noundef 0, i32 noundef 1) #9
  %71 = icmp eq i64 %70, 0
  br i1 %71, label %72, label %85

72:                                               ; preds = %68
  %73 = load i32, ptr %10, align 4
  %74 = call i64 @lseek(i32 noundef %73, i64 noundef 0, i32 noundef 0) #9
  %75 = icmp eq i64 %74, 0
  br i1 %75, label %76, label %85

76:                                               ; preds = %72
  %77 = load i32, ptr %10, align 4
  %78 = call i64 @lseek(i32 noundef %77, i64 noundef 0, i32 noundef 2) #9
  %79 = icmp sgt i64 %78, 0
  br i1 %79, label %80, label %85

80:                                               ; preds = %76
  %81 = load i32, ptr %10, align 4
  %82 = call i64 @lseek(i32 noundef %81, i64 noundef 0, i32 noundef 0) #9
  %83 = icmp eq i64 %82, 0
  br i1 %83, label %84, label %85

84:                                               ; preds = %80
  store i32 1, ptr %11, align 4
  br label %85

85:                                               ; preds = %84, %80, %76, %72, %68, %63
  br label %86

86:                                               ; preds = %85, %57
  %87 = load i32, ptr %11, align 4
  %88 = icmp ne i32 %87, 0
  br i1 %88, label %89, label %108

89:                                               ; preds = %86
  store i64 65536, ptr %12, align 8
  br label %90

90:                                               ; preds = %101, %89
  %91 = load i64, ptr %12, align 8
  %92 = load ptr, ptr %7, align 8
  %93 = getelementptr inbounds %struct.read_file_data, ptr %92, i32 0, i32 1
  %94 = load i64, ptr %93, align 8
  %95 = icmp ult i64 %91, %94
  br i1 %95, label %96, label %99

96:                                               ; preds = %90
  %97 = load i64, ptr %12, align 8
  %98 = icmp ult i64 %97, 67108864
  br label %99

99:                                               ; preds = %96, %90
  %100 = phi i1 [ false, %90 ], [ %98, %96 ]
  br i1 %100, label %101, label %104

101:                                              ; preds = %99
  %102 = load i64, ptr %12, align 8
  %103 = mul i64 %102, 2
  store i64 %103, ptr %12, align 8
  br label %90, !llvm.loop !7

104:                                              ; preds = %99
  %105 = load i64, ptr %12, align 8
  %106 = load ptr, ptr %7, align 8
  %107 = getelementptr inbounds %struct.read_file_data, ptr %106, i32 0, i32 1
  store i64 %105, ptr %107, align 8
  br label %108

108:                                              ; preds = %104, %86
  %109 = load ptr, ptr %7, align 8
  %110 = getelementptr inbounds %struct.read_file_data, ptr %109, i32 0, i32 1
  %111 = load i64, ptr %110, align 8
  %112 = call noalias ptr @malloc(i64 noundef %111) #11
  store ptr %112, ptr %8, align 8
  %113 = load ptr, ptr %8, align 8
  %114 = icmp eq ptr %113, null
  br i1 %114, label %115, label %117

115:                                              ; preds = %108
  %116 = load ptr, ptr %4, align 8
  call void (ptr, i32, ptr, ...) @archive_set_error(ptr noundef %116, i32 noundef 12, ptr noundef @.str.1)
  br label %134

117:                                              ; preds = %108
  %118 = load ptr, ptr %8, align 8
  %119 = load ptr, ptr %7, align 8
  %120 = getelementptr inbounds %struct.read_file_data, ptr %119, i32 0, i32 2
  store ptr %118, ptr %120, align 8
  %121 = load i32, ptr %10, align 4
  %122 = load ptr, ptr %7, align 8
  %123 = getelementptr inbounds %struct.read_file_data, ptr %122, i32 0, i32 0
  store i32 %121, ptr %123, align 8
  %124 = getelementptr inbounds %struct.stat, ptr %6, i32 0, i32 3
  %125 = load i32, ptr %124, align 8
  %126 = load ptr, ptr %7, align 8
  %127 = getelementptr inbounds %struct.read_file_data, ptr %126, i32 0, i32 3
  store i32 %125, ptr %127, align 8
  %128 = load i32, ptr %11, align 4
  %129 = icmp ne i32 %128, 0
  br i1 %129, label %130, label %133

130:                                              ; preds = %117
  %131 = load ptr, ptr %7, align 8
  %132 = getelementptr inbounds %struct.read_file_data, ptr %131, i32 0, i32 4
  store i8 1, ptr %132, align 4
  br label %133

133:                                              ; preds = %130, %117
  store i32 0, ptr %3, align 4
  br label %144

134:                                              ; preds = %115, %47, %40
  %135 = load i32, ptr %10, align 4
  %136 = icmp ne i32 %135, -1
  br i1 %136, label %137, label %143

137:                                              ; preds = %134
  %138 = load i32, ptr %10, align 4
  %139 = icmp ne i32 %138, 0
  br i1 %139, label %140, label %143

140:                                              ; preds = %137
  %141 = load i32, ptr %10, align 4
  %142 = call i32 @close(i32 noundef %141)
  br label %143

143:                                              ; preds = %140, %137, %134
  store i32 -30, ptr %3, align 4
  br label %144

144:                                              ; preds = %143, %133, %34
  %145 = load i32, ptr %3, align 4
  ret i32 %145
}