; Function Attrs: nounwind uwtable
define internal range(i32 -30, 1) i32 @file_open(ptr noundef %0, ptr noundef %1) #0 {
  %3 = alloca %struct.stat, align 8
  tail call void @archive_clear_error(ptr noundef %0) #14
  %4 = getelementptr inbounds nuw i8, ptr %1, i64 32
  %5 = load i32, ptr %4, align 8
  switch i32 %5, label %.thread52 [
    i32 0, label %13
    i32 1, label %6
  ]

6:                                                ; preds = %2
  %7 = getelementptr inbounds nuw i8, ptr %1, i64 36
  %8 = tail call i32 (ptr, i32, ...) @open(ptr noundef nonnull %7, i32 noundef 524288) #14
  tail call void @__archive_ensure_cloexec_flag(i32 noundef %8) #14
  %9 = icmp slt i32 %8, 0
  br i1 %9, label %10, label %13

10:                                               ; preds = %6
  %11 = tail call ptr @__errno_location() #17
  %12 = load i32, ptr %11, align 4
  tail call void (ptr, i32, ptr, ...) @archive_set_error(ptr noundef %0, i32 noundef %12, ptr noundef nonnull @.str.4, ptr noundef nonnull %7) #14
  br label %57

.thread52:                                        ; preds = %2
  tail call void (ptr, i32, ptr, ...) @archive_set_error(ptr noundef %0, i32 noundef -1, ptr noundef nonnull @.str.5) #14
  br label %57

13:                                               ; preds = %2, %6
  %.042 = phi ptr [ %7, %6 ], [ @.str, %2 ]
  %.041 = phi i32 [ %8, %6 ], [ %5, %2 ]
  %14 = call i32 @fstat(i32 noundef %.041, ptr noundef nonnull %3) #14
  %.not = icmp eq i32 %14, 0
  br i1 %.not, label %18, label %15

15:                                               ; preds = %13
  %16 = tail call ptr @__errno_location() #17
  %17 = load i32, ptr %16, align 4
  tail call void (ptr, i32, ptr, ...) @archive_set_error(ptr noundef %0, i32 noundef %17, ptr noundef nonnull @.str.6, ptr noundef nonnull %.042) #14
  br label %53

18:                                               ; preds = %13
  %19 = getelementptr inbounds nuw i8, ptr %3, i64 24
  %20 = load i32, ptr %19, align 8
  %21 = trunc i32 %20 to i16
  %trunc = and i16 %21, -4096
  switch i16 %trunc, label %.thread [
    i16 -32768, label %22
    i16 24576, label %26
  ]

22:                                               ; preds = %18
  %23 = load i64, ptr %3, align 8
  %24 = getelementptr inbounds nuw i8, ptr %3, i64 8
  %25 = load i64, ptr %24, align 8
  tail call void @archive_read_extract_set_skip_file(ptr noundef %0, i64 noundef %23, i64 noundef %25) #14
  br label %.preheader

26:                                               ; preds = %18
  %27 = tail call i64 @lseek(i32 noundef %.041, i64 noundef 0, i32 noundef 1) #14
  %28 = icmp eq i64 %27, 0
  br i1 %28, label %29, label %.thread

29:                                               ; preds = %26
  %30 = tail call i64 @lseek(i32 noundef %.041, i64 noundef 0, i32 noundef 0) #14
  %31 = icmp eq i64 %30, 0
  br i1 %31, label %32, label %.thread

32:                                               ; preds = %29
  %33 = tail call i64 @lseek(i32 noundef %.041, i64 noundef 0, i32 noundef 2) #14
  %34 = icmp sgt i64 %33, 0
  br i1 %34, label %35, label %.thread

35:                                               ; preds = %32
  %36 = tail call i64 @lseek(i32 noundef %.041, i64 noundef 0, i32 noundef 0) #14
  %.not55 = icmp eq i64 %36, 0
  br i1 %.not55, label %.preheader, label %.thread

.preheader:                                       ; preds = %35, %22
  %37 = getelementptr inbounds nuw i8, ptr %1, i64 8
  %38 = load i64, ptr %37, align 8
  %invariant.umin = tail call i64 @llvm.umin.i64(i64 %38, i64 67108864)
  br label %39

39:                                               ; preds = %39, %.preheader
  %.0 = phi i64 [ %41, %39 ], [ 65536, %.preheader ]
  %40 = icmp ult i64 %.0, %invariant.umin
  %41 = shl nuw nsw i64 %.0, 1
  br i1 %40, label %39, label %42, !llvm.loop !7

42:                                               ; preds = %39
  store i64 %.0, ptr %37, align 8
  br label %.thread

.thread:                                          ; preds = %18, %26, %29, %32, %42, %35
  %.not4850 = phi i1 [ false, %42 ], [ true, %35 ], [ true, %32 ], [ true, %29 ], [ true, %26 ], [ true, %18 ]
  %43 = getelementptr inbounds nuw i8, ptr %1, i64 8
  %44 = load i64, ptr %43, align 8
  %45 = tail call noalias ptr @malloc(i64 noundef %44) #18
  %46 = icmp eq ptr %45, null
  br i1 %46, label %47, label %48

47:                                               ; preds = %.thread
  tail call void (ptr, i32, ptr, ...) @archive_set_error(ptr noundef %0, i32 noundef 12, ptr noundef nonnull @.str.1) #14
  br label %53

48:                                               ; preds = %.thread
  %49 = getelementptr inbounds nuw i8, ptr %1, i64 16
  store ptr %45, ptr %49, align 8
  store i32 %.041, ptr %1, align 8
  %50 = getelementptr inbounds nuw i8, ptr %1, i64 24
  store i32 %20, ptr %50, align 8
  br i1 %.not4850, label %57, label %51

51:                                               ; preds = %48
  %52 = getelementptr inbounds nuw i8, ptr %1, i64 28
  store i8 1, ptr %52, align 4
  br label %57

53:                                               ; preds = %47, %15
  %54 = add nsw i32 %.041, -1
  %or.cond = icmp ult i32 %54, -2
  br i1 %or.cond, label %55, label %57

55:                                               ; preds = %53
  %56 = tail call i32 @close(i32 noundef %.041) #14
  br label %57

57:                                               ; preds = %.thread52, %53, %55, %48, %51, %10
  %.043 = phi i32 [ -30, %10 ], [ 0, %51 ], [ 0, %48 ], [ -30, %55 ], [ -30, %53 ], [ -30, %.thread52 ]
  ret i32 %.043
}